(dp1
S'output'
p2
S"<type 'exceptions.AttributeError'> 'Table' object has no attribute 'trucate'"
p3
sS'layer'
p4
S'/home/leonardodutra/web2py/applications/mystore/models/db1.py'
p5
sS'code'
p6
S'NE = IS_NOT_EMPTY()\ndb.define_table(\n    \'product\',\n    Field(\'code\',requires=NE),\n    Field(\'name\',requires=NE),\n    Field(\'description\',requires=NE),\n    Field(\'qty_in_stock\'),\n    Field(\'unit_price\',\'decimal(10,2)\'),\n    Field(\'image\',\'upload\'),\n    Field(\'tags\'),\n    Field(\'popularity\',\'integer\',default=0),\n    Field(\'featured\',\'boolean\',default=False),\n    Field(\'on_sale\',\'boolean\',default=False),\n    Field(\'tax\',\'decimal(10,2)\'),\n    Field(\'keywords\',required=True,\n          compute=lambda r: "%(code)s %(name)s %(tags)s" % r),\n    auth.signature)\ndb.product.trucate()\n\ndb.define_table(\n    \'purchase_order\',\n    Field(\'buyer_name\'),\n    Field(\'shipping_address\'),\n    Field(\'shipping_city\'),\n    Field(\'shipping_zip\'),\n    Field(\'shipping_state\'),\n    Field(\'shipping_country\'),\n    Field(\'total_price\',\'decimal(10,2)\',readable=False,writable=False),\n    Field(\'total_tax\',\'decimal(10,2)\',readable=False,writable=False),\n    Field(\'total_balance\',\'decimal(10,2)\',readable=False,writable=False),\n    Field(\'amount_paid\',\'decimal(10,2)\',readable=False,writable=False),\n    Field(\'payment_id\',readable=False,writable=False),\n    Field(\'paid_on\',\'datetime\',readable=False,writable=False),\n    Field(\'status\',requires=IS_IN_SET((\'submitted\',\'shipped\',\'received\',\'returned\')),\n          default=\'submitted\',readable=False,writable=False),\n    Field(\'notes\',\'text\'),\n    auth.signature)\n\ndb.define_table(\n    \'purchase_item\',\n    Field(\'purchase_order\',\'reference purchase_order\'),\n    Field(\'product\',\'reference product\'),\n    db.product, # yes we copy the product description at the moment of an order\n    Field(\'quantity_in_cart\',\'integer\'),\n    auth.signature)\n\n#db(db.auth_user.id>1).delete()\n#db(db.product).delete()\nif db(db.product).count()==0:\n    import random\n    from gluon.contrib.populate import populate\n    n = 10000\n    for name in [\'Table\',\'Chair\',\'Desk\',\'Shelves\',\'Pen\',\'Robot\',\'Pillow\',\'Bed\',\'Car\']:\n        for color in [\'red\',\'blue\',\'greem\',\'orange\',\'yellow\']:\n            n = n+1\n            db.product.insert(\n                code="%.5i" % n,\n                name=name,tags=name+\' \'+color,description=\'bla \'*100,\n                unit_price=random.randint(10,1000),tax=0.10,\n                qty_in_stock=random.randint(0,100))\n                             \n'
p7
sS'snapshot'
p8
(dp9
S'exception'
p10
(dp11
S'__hash__'
p12
S"<method-wrapper '__hash__' of exceptions.AttributeError object>"
p13
sS'__setattr__'
p14
S"<method-wrapper '__setattr__' of exceptions.AttributeError object>"
p15
sS'__reduce_ex__'
p16
S'<built-in method __reduce_ex__ of exceptions.AttributeError object>'
p17
sS'__getslice__'
p18
S"<method-wrapper '__getslice__' of exceptions.AttributeError object>"
p19
sS'__getitem__'
p20
S"<method-wrapper '__getitem__' of exceptions.AttributeError object>"
p21
sS'__setstate__'
p22
S'<built-in method __setstate__ of exceptions.AttributeError object>'
p23
sS'__reduce__'
p24
S'<built-in method __reduce__ of exceptions.AttributeError object>'
p25
sS'__str__'
p26
S"<method-wrapper '__str__' of exceptions.AttributeError object>"
p27
sS'__format__'
p28
S'<built-in method __format__ of exceptions.AttributeError object>'
p29
sS'__getattribute__'
p30
S"<method-wrapper '__getattribute__' of exceptions.AttributeError object>"
p31
sS'__class__'
p32
S"<type 'exceptions.AttributeError'>"
p33
sS'__unicode__'
p34
S'<built-in method __unicode__ of exceptions.AttributeError object>'
p35
sS'__delattr__'
p36
S"<method-wrapper '__delattr__' of exceptions.AttributeError object>"
p37
sS'__subclasshook__'
p38
S'<built-in method __subclasshook__ of type object>'
p39
sS'__repr__'
p40
S"<method-wrapper '__repr__' of exceptions.AttributeError object>"
p41
sS'args'
p42
S'("\'Table\' object has no attribute \'trucate\'",)'
p43
sS'__dict__'
p44
S'{}'
p45
sS'__sizeof__'
p46
S'<built-in method __sizeof__ of exceptions.AttributeError object>'
p47
sS'__doc__'
p48
S"'Attribute not found.'"
p49
sS'__init__'
p50
S"<method-wrapper '__init__' of exceptions.AttributeError object>"
p51
sS'__new__'
p52
S'<built-in method __new__ of type object>'
p53
ssS'evalue'
p54
S"'Table' object has no attribute 'trucate'"
p55
sS'request'
p56
cgluon.html
XML_unpickle
p57
(S'sj[\x00\x00<div><table><tr><td style="font-weight:bold;vertical-align:top;">ajax</td><td style="vertical-align:top;">:</td><td><div>False</div></td></tr><tr><td style="font-weight:bold;vertical-align:top;">application</td><td style="vertical-align:top;">:</td><td><div>mystore</div></td></tr><tr><td style="font-weight:bold;vertical-align:top;">args</td><td style="vertical-align:top;">:</td><td><div><table><tr><td><div>db</div></td></tr></table></div></td></tr><tr><td style="font-weight:bold;vertical-align:top;">cid</td><td style="vertical-align:top;">:</td><td><div>None</div></td></tr><tr><td style="font-weight:bold;vertical-align:top;">client</td><td style="vertical-align:top;">:</td><td><div>127.0.0.1</div></td></tr><tr><td style="font-weight:bold;vertical-align:top;">controller</td><td style="vertical-align:top;">:</td><td><div>appadmin</div></td></tr><tr><td style="font-weight:bold;vertical-align:top;">cookies</td><td style="vertical-align:top;">:</td><td><div><table><tr><td style="font-weight:bold;vertical-align:top;">session_id_admin</td><td style="vertical-align:top;">:</td><td><div>127.0.0.1-1604c268-fd15-42e8-aa3f-8e0bf4664b9e<table><tr><td style="font-weight:bold;vertical-align:top;">comment</td><td style="vertical-align:top;">:</td><td><div></div></td></tr><tr><td style="font-weight:bold;vertical-align:top;">domain</td><td style="vertical-align:top;">:</td><td><div></div></td></tr><tr><td style="font-weight:bold;vertical-align:top;">expires</td><td style="vertical-align:top;">:</td><td><div></div></td></tr><tr><td style="font-weight:bold;vertical-align:top;">httponly</td><td style="vertical-align:top;">:</td><td><div></div></td></tr><tr><td style="font-weight:bold;vertical-align:top;">max-age</td><td style="vertical-align:top;">:</td><td><div></div></td></tr><tr><td style="font-weight:bold;vertical-align:top;">path</td><td style="vertical-align:top;">:</td><td><div></div></td></tr><tr><td style="font-weight:bold;vertical-align:top;">secure</td><td style="vertical-align:top;">:</td><td><div></div></td></tr><tr><td style="font-weight:bold;vertical-align:top;">version</td><td style="vertical-align:top;">:</td><td><div></div></td></tr></table></div></td></tr><tr><td style="font-weight:bold;vertical-align:top;">session_id_mystore</td><td style="vertical-align:top;">:</td><td><div>127.0.0.1-d7256b0c-87db-4443-84b8-18308c4d57c9<table><tr><td style="font-weight:bold;vertical-align:top;">comment</td><td style="vertical-align:top;">:</td><td><div></div></td></tr><tr><td style="font-weight:bold;vertical-align:top;">domain</td><td style="vertical-align:top;">:</td><td><div></div></td></tr><tr><td style="font-weight:bold;vertical-align:top;">expires</td><td style="vertical-align:top;">:</td><td><div></div></td></tr><tr><td style="font-weight:bold;vertical-align:top;">httponly</td><td style="vertical-align:top;">:</td><td><div></div></td></tr><tr><td style="font-weight:bold;vertical-align:top;">max-age</td><td style="vertical-align:top;">:</td><td><div></div></td></tr><tr><td style="font-weight:bold;vertical-align:top;">path</td><td style="vertical-align:top;">:</td><td><div></div></td></tr><tr><td style="font-weight:bold;vertical-align:top;">secure</td><td style="vertical-align:top;">:</td><td><div></div></td></tr><tr><td style="font-weight:bold;vertical-align:top;">version</td><td style="vertical-align:top;">:</td><td><div></div></td></tr></table></div></td></tr><tr><td style="font-weight:bold;vertical-align:top;">session_id_welcome</td><td style="vertical-align:top;">:</td><td><div>127.0.0.1-cbba8479-74e3-46c1-8dae-1bbee08d47d2<table><tr><td style="font-weight:bold;vertical-align:top;">comment</td><td style="vertical-align:top;">:</td><td><div></div></td></tr><tr><td style="font-weight:bold;vertical-align:top;">domain</td><td style="vertical-align:top;">:</td><td><div></div></td></tr><tr><td style="font-weight:bold;vertical-align:top;">expires</td><td style="vertical-align:top;">:</td><td><div></div></td></tr><tr><td style="font-weight:bold;vertical-align:top;">httponly</td><td style="vertical-align:top;">:</td><td><div></div></td></tr><tr><td style="font-weight:bold;vertical-align:top;">max-age</td><td style="vertical-align:top;">:</td><td><div></div></td></tr><tr><td style="font-weight:bold;vertical-align:top;">path</td><td style="vertical-align:top;">:</td><td><div></div></td></tr><tr><td style="font-weight:bold;vertical-align:top;">secure</td><td style="vertical-align:top;">:</td><td><div></div></td></tr><tr><td style="font-weight:bold;vertical-align:top;">version</td><td style="vertical-align:top;">:</td><td><div></div></td></tr></table></div></td></tr></table></div></td></tr><tr><td style="font-weight:bold;vertical-align:top;">env</td><td style="vertical-align:top;">:</td><td><div><table><tr><td style="font-weight:bold;vertical-align:top;">HTTP_ACCEPT</td><td style="vertical-align:top;">:</td><td><div>text/html,application/xhtml+xml,application/xml;q=0.9,*/*;q=0.8</div></td></tr><tr><td style="font-weight:bold;vertical-align:top;">HTTP_ACCEPT_ENCODING</td><td style="vertical-align:top;">:</td><td><div>gzip, deflate</div></td></tr><tr><td style="font-weight:bold;vertical-align:top;">HTTP_ACCEPT_LANGUAGE</td><td style="vertical-align:top;">:</td><td><div>en-US,en;q=0.5</div></td></tr><tr><td style="font-weight:bold;vertical-align:top;">HTTP_CACHE_CONTROL</td><td style="vertical-align:top;">:</td><td><div>max-age=0</div></td></tr><tr><td style="font-weight:bold;vertical-align:top;">HTTP_CONNECTION</td><td style="vertical-align:top;">:</td><td><div>keep-alive</div></td></tr><tr><td style="font-weight:bold;vertical-align:top;">HTTP_COOKIE</td><td style="vertical-align:top;">:</td><td><div>session_id_welcome=127.0.0.1-cbba8479-74e3-46c1-8dae-1bbee08d47d2; session_id_admin=127.0.0.1-1604c268-fd15-42e8-aa3f-8e0bf4664b9e; session_id_mystore=127.0.0.1-d7256b0c-87db-4443-84b8-18308c4d57c9</div></td></tr><tr><td style="font-weight:bold;vertical-align:top;">HTTP_HOST</td><td style="vertical-align:top;">:</td><td><div>localhost:8000</div></td></tr><tr><td style="font-weight:bold;vertical-align:top;">HTTP_REFERER</td><td style="vertical-align:top;">:</td><td><div>http://localhost:8000/mystore/appadmin/index</div></td></tr><tr><td style="font-weight:bold;vertical-align:top;">HTTP_USER_AGENT</td><td style="vertical-align:top;">:</td><td><div>Mozilla/5.0 (X11; Ubuntu; Linux i686; rv:31.0) Gecko/20100101 Firefox/31.0</div></td></tr><tr><td style="font-weight:bold;vertical-align:top;">PATH_INFO</td><td style="vertical-align:top;">:</td><td><div>/mystore/appadmin/select/db</div></td></tr><tr><td style="font-weight:bold;vertical-align:top;">QUERY_STRING</td><td style="vertical-align:top;">:</td><td><div>query=db.product.id%3E0</div></td></tr><tr><td style="font-weight:bold;vertical-align:top;">REMOTE_ADDR</td><td style="vertical-align:top;">:</td><td><div>127.0.0.1</div></td></tr><tr><td style="font-weight:bold;vertical-align:top;">REMOTE_PORT</td><td style="vertical-align:top;">:</td><td><div>51306</div></td></tr><tr><td style="font-weight:bold;vertical-align:top;">REQUEST_METHOD</td><td style="vertical-align:top;">:</td><td><div>GET</div></td></tr><tr><td style="font-weight:bold;vertical-align:top;">SCRIPT_NAME</td><td style="vertical-align:top;">:</td><td><div></div></td></tr><tr><td style="font-weight:bold;vertical-align:top;">SERVER_NAME</td><td style="vertical-align:top;">:</td><td><div>leonardodutra</div></td></tr><tr><td style="font-weight:bold;vertical-align:top;">SERVER_PORT</td><td style="vertical-align:top;">:</td><td><div>8000</div></td></tr><tr><td style="font-weight:bold;vertical-align:top;">SERVER_PROTOCOL</td><td style="vertical-align:top;">:</td><td><div>HTTP/1.1</div></td></tr><tr><td style="font-weight:bold;vertical-align:top;">SERVER_SOFTWARE</td><td style="vertical-align:top;">:</td><td><div>Rocket 1.2.6</div></td></tr><tr><td style="font-weight:bold;vertical-align:top;">app_folders</td><td style="vertical-align:top;">:</td><td><div>set([&#x27;/home/leonardodutra/web2py/applications/admin/&#x27;, &#x27;/home/leonardodutra/web2py/applications/welcome/&#x27;, &#x27;/home/leonardodutra/web2py/applications/mystore/&#x27;])</div></td></tr><tr><td style="font-weight:bold;vertical-align:top;">applications_parent</td><td style="vertical-align:top;">:</td><td><div>/home/leonardodutra/web2py</div></td></tr><tr><td style="font-weight:bold;vertical-align:top;">cmd_args</td><td style="vertical-align:top;">:</td><td><div><table></table></div></td></tr><tr><td style="font-weight:bold;vertical-align:top;">cmd_options</td><td style="vertical-align:top;">:</td><td><div>&lt;Values at 0xb68741ec: {&#x27;verbose&#x27;: False, &#x27;ip&#x27;: &#x27;127.0.0.1&#x27;, &#x27;debuglevel&#x27;: 30, &#x27;with_scheduler&#x27;: False, &#x27;shutdown_timeout&#x27;: 5, &#x27;taskbar&#x27;: False, &#x27;with_coverage&#x27;: False, &#x27;pid_filename&#x27;: &#x27;httpserver.pid&#x27;, &#x27;maxthreads&#x27;: None, &#x27;softcron&#x27;: False, &#x27;server_name&#x27;: &#x27;leonardodutra&#x27;, &#x27;bpython&#x27;: False, &#x27;nogui&#x27;: False, &#x27;port&#x27;: 8000, &#x27;print_errors&#x27;: False, &#x27;extcron&#x27;: False, &#x27;runcron&#x27;: False, &#x27;run_system_tests&#x27;: False, &#x27;test&#x27;: None, &#x27;folder&#x27;: &#x27;/home/leonardodutra/web2py&#x27;, &#x27;config&#x27;: &#x27;&#x27;, &#x27;minthreads&#x27;: None, &#x27;shell&#x27;: None, &#x27;run&#x27;: &#x27;&#x27;, &#x27;log_filename&#x27;: &#x27;httpserver.log&#x27;, &#x27;profiler_dir&#x27;: None, &#x27;args&#x27;: [&#x27;&#x27;], &#x27;socket_timeout&#x27;: 5, &#x27;ssl_ca_certificate&#x27;: None, &#x27;scheduler&#x27;: None, &#x27;interfaces&#x27;: None, &#x27;ssl_private_key&#x27;: &#x27;&#x27;, &#x27;gae&#x27;: None, &#x27;password&#x27;: &#x27;******&#x27;, &#x27;request_queue_size&#x27;: 5, &#x27;ssl_certificate&#x27;: &#x27;&#x27;, &#x27;cronjob&#x27;: False, &#x27;numthreads&#x27;: None, &#x27;quiet&#x27;: False, &#x27;import_models&#x27;: False, &#x27;timeout&#x27;: 10, &#x27;plain&#x27;: False, &#x27;nobanner&#x27;: False}&gt;</div></td></tr><tr><td style="font-weight:bold;vertical-align:top;">db_sessions</td><td style="vertical-align:top;">:</td><td><div>set([])</div></td></tr><tr><td style="font-weight:bold;vertical-align:top;">debugging</td><td style="vertical-align:top;">:</td><td><div>False</div></td></tr><tr><td style="font-weight:bold;vertical-align:top;">gluon_parent</td><td style="vertical-align:top;">:</td><td><div>/home/leonardodutra/web2py</div></td></tr><tr><td style="font-weight:bold;vertical-align:top;">http_accept</td><td style="vertical-align:top;">:</td><td><div>text/html,application/xhtml+xml,application/xml;q=0.9,*/*;q=0.8</div></td></tr><tr><td style="font-weight:bold;vertical-align:top;">http_accept_encoding</td><td style="vertical-align:top;">:</td><td><div>gzip, deflate</div></td></tr><tr><td style="font-weight:bold;vertical-align:top;">http_accept_language</td><td style="vertical-align:top;">:</td><td><div>en-US,en;q=0.5</div></td></tr><tr><td style="font-weight:bold;vertical-align:top;">http_cache_control</td><td style="vertical-align:top;">:</td><td><div>max-age=0</div></td></tr><tr><td style="font-weight:bold;vertical-align:top;">http_connection</td><td style="vertical-align:top;">:</td><td><div>keep-alive</div></td></tr><tr><td style="font-weight:bold;vertical-align:top;">http_cookie</td><td style="vertical-align:top;">:</td><td><div>session_id_welcome=127.0.0.1-cbba8479-74e3-46c1-8dae-1bbee08d47d2; session_id_admin=127.0.0.1-1604c268-fd15-42e8-aa3f-8e0bf4664b9e; session_id_mystore=127.0.0.1-d7256b0c-87db-4443-84b8-18308c4d57c9</div></td></tr><tr><td style="font-weight:bold;vertical-align:top;">http_host</td><td style="vertical-align:top;">:</td><td><div>localhost:8000</div></td></tr><tr><td style="font-weight:bold;vertical-align:top;">http_referer</td><td style="vertical-align:top;">:</td><td><div>http://localhost:8000/mystore/appadmin/index</div></td></tr><tr><td style="font-weight:bold;vertical-align:top;">http_user_agent</td><td style="vertical-align:top;">:</td><td><div>Mozilla/5.0 (X11; Ubuntu; Linux i686; rv:31.0) Gecko/20100101 Firefox/31.0</div></td></tr><tr><td style="font-weight:bold;vertical-align:top;">is_jython</td><td style="vertical-align:top;">:</td><td><div>False</div></td></tr><tr><td style="font-weight:bold;vertical-align:top;">is_pypy</td><td style="vertical-align:top;">:</td><td><div>False</div></td></tr><tr><td style="font-weight:bold;vertical-align:top;">is_source</td><td style="vertical-align:top;">:</td><td><div>True</div></td></tr><tr><td style="font-weight:bold;vertical-align:top;">local_hosts</td><td style="vertical-align:top;">:</td><td><div><table><tr><td><div>::1</div></td></tr><tr><td><div>127.0.1.1</div></td></tr><tr><td><div>::ffff:127.0.0.1</div></td></tr><tr><td><div>127.0.0.1</div></td></tr><tr><td><div>leonardodutra</div></td></tr></table></div></td></tr><tr><td style="font-weight:bold;vertical-align:top;">path_info</td><td style="vertical-align:top;">:</td><td><div>/mystore/appadmin/select/db</div></td></tr><tr><td style="font-weight:bold;vertical-align:top;">query_string</td><td style="vertical-align:top;">:</td><td><div>query=db.product.id%3E0</div></td></tr><tr><td style="font-weight:bold;vertical-align:top;">remote_addr</td><td style="vertical-align:top;">:</td><td><div>127.0.0.1</div></td></tr><tr><td style="font-weight:bold;vertical-align:top;">remote_port</td><td style="vertical-align:top;">:</td><td><div>51306</div></td></tr><tr><td style="font-weight:bold;vertical-align:top;">request_method</td><td style="vertical-align:top;">:</td><td><div>GET</div></td></tr><tr><td style="font-weight:bold;vertical-align:top;">request_uri</td><td style="vertical-align:top;">:</td><td><div>/mystore/appadmin/select/db?query=db.product.id%3E0</div></td></tr><tr><td style="font-weight:bold;vertical-align:top;">script_name</td><td style="vertical-align:top;">:</td><td><div></div></td></tr><tr><td style="font-weight:bold;vertical-align:top;">server_name</td><td style="vertical-align:top;">:</td><td><div>leonardodutra</div></td></tr><tr><td style="font-weight:bold;vertical-align:top;">server_port</td><td style="vertical-align:top;">:</td><td><div>8000</div></td></tr><tr><td style="font-weight:bold;vertical-align:top;">server_protocol</td><td style="vertical-align:top;">:</td><td><div>HTTP/1.1</div></td></tr><tr><td style="font-weight:bold;vertical-align:top;">server_software</td><td style="vertical-align:top;">:</td><td><div>Rocket 1.2.6</div></td></tr><tr><td style="font-weight:bold;vertical-align:top;">web2py_path</td><td style="vertical-align:top;">:</td><td><div>/home/leonardodutra/web2py</div></td></tr><tr><td style="font-weight:bold;vertical-align:top;">web2py_version</td><td style="vertical-align:top;">:</td><td><div>2.14.6-stable+timestamp.2016.05.10.00.21.47</div></td></tr><tr><td style="font-weight:bold;vertical-align:top;">wsgi.errors</td><td style="vertical-align:top;">:</td><td><div>&lt;open file &#x27;&lt;stderr&gt;&#x27;, mode &#x27;w&#x27; at 0xb75330d0&gt;</div></td></tr><tr><td style="font-weight:bold;vertical-align:top;">wsgi.file_wrapper</td><td style="vertical-align:top;">:</td><td><div>&lt;class wsgiref.util.FileWrapper at 0xb68b07dc&gt;</div></td></tr><tr><td style="font-weight:bold;vertical-align:top;">wsgi.input</td><td style="vertical-align:top;">:</td><td><div>&lt;socket._fileobject object at 0xb007306c&gt;</div></td></tr><tr><td style="font-weight:bold;vertical-align:top;">wsgi.multiprocess</td><td style="vertical-align:top;">:</td><td><div>False</div></td></tr><tr><td style="font-weight:bold;vertical-align:top;">wsgi.multithread</td><td style="vertical-align:top;">:</td><td><div>True</div></td></tr><tr><td style="font-weight:bold;vertical-align:top;">wsgi.run_once</td><td style="vertical-align:top;">:</td><td><div>False</div></td></tr><tr><td style="font-weight:bold;vertical-align:top;">wsgi.url_scheme</td><td style="vertical-align:top;">:</td><td><div>http</div></td></tr><tr><td style="font-weight:bold;vertical-align:top;">wsgi.version</td><td style="vertical-align:top;">:</td><td><div><table><tr><td><div>1</div></td></tr><tr><td><div>0</div></td></tr></table></div></td></tr><tr><td style="font-weight:bold;vertical-align:top;">wsgi_errors</td><td style="vertical-align:top;">:</td><td><div>&lt;open file &#x27;&lt;stderr&gt;&#x27;, mode &#x27;w&#x27; at 0xb75330d0&gt;</div></td></tr><tr><td style="font-weight:bold;vertical-align:top;">wsgi_file_wrapper</td><td style="vertical-align:top;">:</td><td><div>&lt;class wsgiref.util.FileWrapper at 0xb68b07dc&gt;</div></td></tr><tr><td style="font-weight:bold;vertical-align:top;">wsgi_input</td><td style="vertical-align:top;">:</td><td><div>&lt;socket._fileobject object at 0xb007306c&gt;</div></td></tr><tr><td style="font-weight:bold;vertical-align:top;">wsgi_multiprocess</td><td style="vertical-align:top;">:</td><td><div>False</div></td></tr><tr><td style="font-weight:bold;vertical-align:top;">wsgi_multithread</td><td style="vertical-align:top;">:</td><td><div>True</div></td></tr><tr><td style="font-weight:bold;vertical-align:top;">wsgi_run_once</td><td style="vertical-align:top;">:</td><td><div>False</div></td></tr><tr><td style="font-weight:bold;vertical-align:top;">wsgi_url_scheme</td><td style="vertical-align:top;">:</td><td><div>http</div></td></tr><tr><td style="font-weight:bold;vertical-align:top;">wsgi_version</td><td style="vertical-align:top;">:</td><td><div><table><tr><td><div>1</div></td></tr><tr><td><div>0</div></td></tr></table></div></td></tr></table></div></td></tr><tr><td style="font-weight:bold;vertical-align:top;">extension</td><td style="vertical-align:top;">:</td><td><div>html</div></td></tr><tr><td style="font-weight:bold;vertical-align:top;">folder</td><td style="vertical-align:top;">:</td><td><div>/home/leonardodutra/web2py/applications/mystore/</div></td></tr><tr><td style="font-weight:bold;vertical-align:top;">function</td><td style="vertical-align:top;">:</td><td><div>select</div></td></tr><tr><td style="font-weight:bold;vertical-align:top;">global_settings</td><td style="vertical-align:top;">:</td><td><div><table><tr><td style="font-weight:bold;vertical-align:top;">app_folders</td><td style="vertical-align:top;">:</td><td><div>set([&#x27;/home/leonardodutra/web2py/applications/admin/&#x27;, &#x27;/home/leonardodutra/web2py/applications/welcome/&#x27;, &#x27;/home/leonardodutra/web2py/applications/mystore/&#x27;])</div></td></tr><tr><td style="font-weight:bold;vertical-align:top;">applications_parent</td><td style="vertical-align:top;">:</td><td><div>/home/leonardodutra/web2py</div></td></tr><tr><td style="font-weight:bold;vertical-align:top;">cmd_args</td><td style="vertical-align:top;">:</td><td><div><table></table></div></td></tr><tr><td style="font-weight:bold;vertical-align:top;">cmd_options</td><td style="vertical-align:top;">:</td><td><div>&lt;Values at 0xb68741ec: {&#x27;verbose&#x27;: False, &#x27;ip&#x27;: &#x27;127.0.0.1&#x27;, &#x27;debuglevel&#x27;: 30, &#x27;with_scheduler&#x27;: False, &#x27;shutdown_timeout&#x27;: 5, &#x27;taskbar&#x27;: False, &#x27;with_coverage&#x27;: False, &#x27;pid_filename&#x27;: &#x27;httpserver.pid&#x27;, &#x27;maxthreads&#x27;: None, &#x27;softcron&#x27;: False, &#x27;server_name&#x27;: &#x27;leonardodutra&#x27;, &#x27;bpython&#x27;: False, &#x27;nogui&#x27;: False, &#x27;port&#x27;: 8000, &#x27;print_errors&#x27;: False, &#x27;extcron&#x27;: False, &#x27;runcron&#x27;: False, &#x27;run_system_tests&#x27;: False, &#x27;test&#x27;: None, &#x27;folder&#x27;: &#x27;/home/leonardodutra/web2py&#x27;, &#x27;config&#x27;: &#x27;&#x27;, &#x27;minthreads&#x27;: None, &#x27;shell&#x27;: None, &#x27;run&#x27;: &#x27;&#x27;, &#x27;log_filename&#x27;: &#x27;httpserver.log&#x27;, &#x27;profiler_dir&#x27;: None, &#x27;args&#x27;: [&#x27;&#x27;], &#x27;socket_timeout&#x27;: 5, &#x27;ssl_ca_certificate&#x27;: None, &#x27;scheduler&#x27;: None, &#x27;interfaces&#x27;: None, &#x27;ssl_private_key&#x27;: &#x27;&#x27;, &#x27;gae&#x27;: None, &#x27;password&#x27;: &#x27;******&#x27;, &#x27;request_queue_size&#x27;: 5, &#x27;ssl_certificate&#x27;: &#x27;&#x27;, &#x27;cronjob&#x27;: False, &#x27;numthreads&#x27;: None, &#x27;quiet&#x27;: False, &#x27;import_models&#x27;: False, &#x27;timeout&#x27;: 10, &#x27;plain&#x27;: False, &#x27;nobanner&#x27;: False}&gt;</div></td></tr><tr><td style="font-weight:bold;vertical-align:top;">db_sessions</td><td style="vertical-align:top;">:</td><td><div>set([])</div></td></tr><tr><td style="font-weight:bold;vertical-align:top;">debugging</td><td style="vertical-align:top;">:</td><td><div>False</div></td></tr><tr><td style="font-weight:bold;vertical-align:top;">gluon_parent</td><td style="vertical-align:top;">:</td><td><div>/home/leonardodutra/web2py</div></td></tr><tr><td style="font-weight:bold;vertical-align:top;">is_jython</td><td style="vertical-align:top;">:</td><td><div>False</div></td></tr><tr><td style="font-weight:bold;vertical-align:top;">is_pypy</td><td style="vertical-align:top;">:</td><td><div>False</div></td></tr><tr><td style="font-weight:bold;vertical-align:top;">is_source</td><td style="vertical-align:top;">:</td><td><div>True</div></td></tr><tr><td style="font-weight:bold;vertical-align:top;">local_hosts</td><td style="vertical-align:top;">:</td><td><div><table><tr><td><div>::1</div></td></tr><tr><td><div>127.0.1.1</div></td></tr><tr><td><div>::ffff:127.0.0.1</div></td></tr><tr><td><div>127.0.0.1</div></td></tr><tr><td><div>leonardodutra</div></td></tr></table></div></td></tr><tr><td style="font-weight:bold;vertical-align:top;">web2py_version</td><td style="vertical-align:top;">:</td><td><div>2.14.6-stable+timestamp.2016.05.10.00.21.47</div></td></tr></table></div></td></tr><tr><td style="font-weight:bold;vertical-align:top;">is_https</td><td style="vertical-align:top;">:</td><td><div>False</div></td></tr><tr><td style="font-weight:bold;vertical-align:top;">is_local</td><td style="vertical-align:top;">:</td><td><div>True</div></td></tr><tr><td style="font-weight:bold;vertical-align:top;">is_restful</td><td style="vertical-align:top;">:</td><td><div>False</div></td></tr><tr><td style="font-weight:bold;vertical-align:top;">is_scheduler</td><td style="vertical-align:top;">:</td><td><div>False</div></td></tr><tr><td style="font-weight:bold;vertical-align:top;">is_shell</td><td style="vertical-align:top;">:</td><td><div>False</div></td></tr><tr><td style="font-weight:bold;vertical-align:top;">now</td><td style="vertical-align:top;">:</td><td><div>datetime.datetime(2017, 1, 26, 14, 18, 56, 219105)</div></td></tr><tr><td style="font-weight:bold;vertical-align:top;">raw_args</td><td style="vertical-align:top;">:</td><td><div>db</div></td></tr><tr><td style="font-weight:bold;vertical-align:top;">raw_extension</td><td style="vertical-align:top;">:</td><td><div>None</div></td></tr><tr><td style="font-weight:bold;vertical-align:top;">url</td><td style="vertical-align:top;">:</td><td><div>/mystore/appadmin/select/db</div></td></tr><tr><td style="font-weight:bold;vertical-align:top;">utcnow</td><td style="vertical-align:top;">:</td><td><div>datetime.datetime(2017, 1, 26, 17, 18, 56, 219127)</div></td></tr><tr><td style="font-weight:bold;vertical-align:top;">wsgi</td><td style="vertical-align:top;">:</td><td><div>&lt;gluon.main.LazyWSGI object at 0xaf8f95cc&gt;</div></td></tr></table></div>'
tRp58
sS'frames'
p59
(lp60
(dp61
S'file'
p62
S'/home/leonardodutra/web2py/gluon/restricted.py'
p63
sS'dump'
p64
(dp65
S'environment'
p66
S"{'A': <class 'gluon.html.A'>, 'ANY_OF': <class 'gluon.validators.ANY_OF'>, 'ASSIGNJS': <function ASSIGNJS>, 'AppConfig': <function AppConfig>, 'Auth': <class 'gluon.tools.Auth'>, 'B': <class 'gluon.html.B'>, 'BEAUTIFY': <class 'gluon.html.BEAUTIFY'>, 'BODY': <class 'gluon.html.BODY'>, 'BR': <class 'gluon.html.BR'>, 'BUTTON': <class 'gluon.html.BUTTON'>, ...}"
p67
sS'ccode'
p68
S'<code object <module> at 0xb5542890, file "/home...b2py/applications/mystore/models/db1.py", line 1>'
p69
ssS'lnum'
p70
I227
sS'lines'
p71
(dp72
I224
S'            ccode = code'
p73
sI225
S'        else:'
p74
sI226
S'            ccode = compile2(code, layer)'
p75
sI227
S'        exec ccode in environment'
p76
sI228
S'    except HTTP:'
p77
sI229
S'        raise'
p78
sI230
S'    except RestrictedError:'
p79
sI231
S'        # do not encapsulate (obfuscate) the original RestrictedError'
p80
sI222
S'    try:'
p81
sI223
S'        if isinstance(code, types.CodeType):'
p82
ssS'call'
p83
S'(code="NE = IS_NOT_EMPTY()\\ndb.define_table(\\n    \'produc...om.randint(0,100))\\n                             \\n", environment={\'A\': <class \'gluon.html.A\'>, \'ANY_OF\': <class \'gluon.validators.ANY_OF\'>, \'ASSIGNJS\': <function ASSIGNJS>, \'AppConfig\': <function AppConfig>, \'Auth\': <class \'gluon.tools.Auth\'>, \'B\': <class \'gluon.html.B\'>, \'BEAUTIFY\': <class \'gluon.html.BEAUTIFY\'>, \'BODY\': <class \'gluon.html.BODY\'>, \'BR\': <class \'gluon.html.BR\'>, \'BUTTON\': <class \'gluon.html.BUTTON\'>, ...}, layer=\'/home/leonardodutra/web2py/applications/mystore/models/db1.py\')'
p84
sS'func'
p85
S'restricted'
p86
sa(dp87
g62
S'/home/leonardodutra/web2py/applications/mystore/models/db1.py'
p88
sg64
(dp89
S'db.product'
p90
S'<Table product (id, code, name, description, qty...reated_on, created_by, modified_on, modified_by)>'
p91
sS'db'
p92
S'<DAL uri="sqlite://storage.sqlite">'
p93
sS'db.product.trucate'
p94
S'undefined'
p95
ssg70
I18
sg71
(dp96
I13
S"    Field('on_sale','boolean',default=False),"
p97
sI14
S"    Field('tax','decimal(10,2)'),"
p98
sI15
S"    Field('keywords',required=True,"
p99
sI16
S'          compute=lambda r: "%(code)s %(name)s %(tags)s" % r),'
p100
sI17
S'    auth.signature)'
p101
sI18
S'db.product.trucate()'
p102
sI19
S''
sI20
S'db.define_table('
p103
sI21
S"    'purchase_order',"
p104
sI22
S"    Field('buyer_name'),"
p105
ssg83
S'()'
p106
sg85
S'<module>'
p107
sasS'pyver'
p108
S'Python 2.7.6: /usr/bin/python (prefix: /usr)'
p109
sS'session'
p110
g57
(S'sS\x16\x00\x00<div><table><tr><td style="font-weight:bold;vertical-align:top;">auth</td><td style="vertical-align:top;">:</td><td><div><table><tr><td style="font-weight:bold;vertical-align:top;">expiration</td><td style="vertical-align:top;">:</td><td><div>3600</div></td></tr><tr><td style="font-weight:bold;vertical-align:top;">hmac_key</td><td style="vertical-align:top;">:</td><td><div>2ce1b607-0d07-4750-bf92-2b44a5c042b9</div></td></tr><tr><td style="font-weight:bold;vertical-align:top;">last_visit</td><td style="vertical-align:top;">:</td><td><div>datetime.datetime(2017, 1, 26, 14, 17, 27, 583031)</div></td></tr><tr><td style="font-weight:bold;vertical-align:top;">remember_me</td><td style="vertical-align:top;">:</td><td><div>False</div></td></tr><tr><td style="font-weight:bold;vertical-align:top;">user</td><td style="vertical-align:top;">:</td><td><div><table><tr><td style="font-weight:bold;vertical-align:top;">email</td><td style="vertical-align:top;">:</td><td><div>admmin@adm.in</div></td></tr><tr><td style="font-weight:bold;vertical-align:top;">first_name</td><td style="vertical-align:top;">:</td><td><div>Admin</div></td></tr><tr><td style="font-weight:bold;vertical-align:top;">id</td><td style="vertical-align:top;">:</td><td><div>2L</div></td></tr><tr><td style="font-weight:bold;vertical-align:top;">last_name</td><td style="vertical-align:top;">:</td><td><div>Admin</div></td></tr><tr><td style="font-weight:bold;vertical-align:top;">registration_id</td><td style="vertical-align:top;">:</td><td><div></div></td></tr><tr><td style="font-weight:bold;vertical-align:top;">registration_key</td><td style="vertical-align:top;">:</td><td><div></div></td></tr><tr><td style="font-weight:bold;vertical-align:top;">reset_password_key</td><td style="vertical-align:top;">:</td><td><div></div></td></tr></table></div></td></tr><tr><td style="font-weight:bold;vertical-align:top;">user_groups</td><td style="vertical-align:top;">:</td><td><div><table><tr><td style="font-weight:bold;vertical-align:top;">2</td><td style="vertical-align:top;">:</td><td><div>manager</div></td></tr></table></div></td></tr></table></div></td></tr><tr><td style="font-weight:bold;vertical-align:top;">cart</td><td style="vertical-align:top;">:</td><td><div><table><tr><td><div><table><tr><td style="font-weight:bold;vertical-align:top;">code</td><td style="vertical-align:top;">:</td><td><div>10006</div></td></tr><tr><td style="font-weight:bold;vertical-align:top;">created_by</td><td style="vertical-align:top;">:</td><td><div>None</div></td></tr><tr><td style="font-weight:bold;vertical-align:top;">created_on</td><td style="vertical-align:top;">:</td><td><div>2016-08-17 14:09:35</div></td></tr><tr><td style="font-weight:bold;vertical-align:top;">description</td><td style="vertical-align:top;">:</td><td><div>bla bla bla bla bla bla bla bla bla bla bla bla bla bla bla bla bla bla bla bla bla bla bla bla bla bla bla bla bla bla bla bla bla bla bla bla bla bla bla bla bla bla bla bla bla bla bla bla bla bla bla bla bla bla bla bla bla bla bla bla bla bla bla bla bla bla bla bla bla bla bla bla bla bla bla bla bla bla bla bla bla bla bla bla bla bla bla bla bla bla bla bla bla bla bla bla bla bla bla bla </div></td></tr><tr><td style="font-weight:bold;vertical-align:top;">featured</td><td style="vertical-align:top;">:</td><td><div>False</div></td></tr><tr><td style="font-weight:bold;vertical-align:top;">id</td><td style="vertical-align:top;">:</td><td><div>6</div></td></tr><tr><td style="font-weight:bold;vertical-align:top;">image</td><td style="vertical-align:top;">:</td><td><div>None</div></td></tr><tr><td style="font-weight:bold;vertical-align:top;">is_active</td><td style="vertical-align:top;">:</td><td><div>True</div></td></tr><tr><td style="font-weight:bold;vertical-align:top;">keywords</td><td style="vertical-align:top;">:</td><td><div>10006 Chair Chair red</div></td></tr><tr><td style="font-weight:bold;vertical-align:top;">modified_by</td><td style="vertical-align:top;">:</td><td><div>None</div></td></tr><tr><td style="font-weight:bold;vertical-align:top;">modified_on</td><td style="vertical-align:top;">:</td><td><div>2016-08-17 14:09:35</div></td></tr><tr><td style="font-weight:bold;vertical-align:top;">name</td><td style="vertical-align:top;">:</td><td><div>Chair</div></td></tr><tr><td style="font-weight:bold;vertical-align:top;">on_sale</td><td style="vertical-align:top;">:</td><td><div>False</div></td></tr><tr><td style="font-weight:bold;vertical-align:top;">popularity</td><td style="vertical-align:top;">:</td><td><div>0</div></td></tr><tr><td style="font-weight:bold;vertical-align:top;">qty_in_stock</td><td style="vertical-align:top;">:</td><td><div>5</div></td></tr><tr><td style="font-weight:bold;vertical-align:top;">quantity_in_cart</td><td style="vertical-align:top;">:</td><td><div>1</div></td></tr><tr><td style="font-weight:bold;vertical-align:top;">tags</td><td style="vertical-align:top;">:</td><td><div>Chair red</div></td></tr><tr><td style="font-weight:bold;vertical-align:top;">tax</td><td style="vertical-align:top;">:</td><td><div>0.1</div></td></tr><tr><td style="font-weight:bold;vertical-align:top;">unit_price</td><td style="vertical-align:top;">:</td><td><div>908</div></td></tr></table></div></td></tr></table></div></td></tr><tr><td style="font-weight:bold;vertical-align:top;">flash</td><td style="vertical-align:top;">:</td><td><div>None</div></td></tr><tr><td style="font-weight:bold;vertical-align:top;">last_orderby</td><td style="vertical-align:top;">:</td><td><div>None</div></td></tr><tr><td style="font-weight:bold;vertical-align:top;">last_query</td><td style="vertical-align:top;">:</td><td><div>db.product.id&gt;0</div></td></tr></table></div>'
tRp111
sS'etype'
p112
S"<type 'exceptions.AttributeError'>"
p113
sS'date'
p114
S'Thu Jan 26 14:18:56 2017'
p115
sS'response'
p116
g57
(S'so\x17\x00\x00<div><table><tr><td style="font-weight:bold;vertical-align:top;">body</td><td style="vertical-align:top;">:</td><td><div>&lt;cStringIO.StringO object at 0xb0022cc0&gt;</div></td></tr><tr><td style="font-weight:bold;vertical-align:top;">cookies</td><td style="vertical-align:top;">:</td><td><div><table><tr><td style="font-weight:bold;vertical-align:top;">session_id_mystore</td><td style="vertical-align:top;">:</td><td><div>127.0.0.1-d7256b0c-87db-4443-84b8-18308c4d57c9<table><tr><td style="font-weight:bold;vertical-align:top;">comment</td><td style="vertical-align:top;">:</td><td><div></div></td></tr><tr><td style="font-weight:bold;vertical-align:top;">domain</td><td style="vertical-align:top;">:</td><td><div></div></td></tr><tr><td style="font-weight:bold;vertical-align:top;">expires</td><td style="vertical-align:top;">:</td><td><div></div></td></tr><tr><td style="font-weight:bold;vertical-align:top;">httponly</td><td style="vertical-align:top;">:</td><td><div></div></td></tr><tr><td style="font-weight:bold;vertical-align:top;">max-age</td><td style="vertical-align:top;">:</td><td><div></div></td></tr><tr><td style="font-weight:bold;vertical-align:top;">path</td><td style="vertical-align:top;">:</td><td><div>/</div></td></tr><tr><td style="font-weight:bold;vertical-align:top;">secure</td><td style="vertical-align:top;">:</td><td><div></div></td></tr><tr><td style="font-weight:bold;vertical-align:top;">version</td><td style="vertical-align:top;">:</td><td><div></div></td></tr></table></div></td></tr></table></div></td></tr><tr><td style="font-weight:bold;vertical-align:top;">delimiters</td><td style="vertical-align:top;">:</td><td><div><table><tr><td><div>{{</div></td></tr><tr><td><div>}}</div></td></tr></table></div></td></tr><tr><td style="font-weight:bold;vertical-align:top;">files</td><td style="vertical-align:top;">:</td><td><div><table></table></div></td></tr><tr><td style="font-weight:bold;vertical-align:top;">flash</td><td style="vertical-align:top;">:</td><td><div></div></td></tr><tr><td style="font-weight:bold;vertical-align:top;">form_label_separator</td><td style="vertical-align:top;">:</td><td><div></div></td></tr><tr><td style="font-weight:bold;vertical-align:top;">formstyle</td><td style="vertical-align:top;">:</td><td><div>bootstrap3_inline</div></td></tr><tr><td style="font-weight:bold;vertical-align:top;">generic_patterns</td><td style="vertical-align:top;">:</td><td><div><table><tr><td><div>*</div></td></tr></table></div></td></tr><tr><td style="font-weight:bold;vertical-align:top;">headers</td><td style="vertical-align:top;">:</td><td><div><table><tr><td style="font-weight:bold;vertical-align:top;">X-Powered-By</td><td style="vertical-align:top;">:</td><td><div>web2py</div></td></tr></table></div></td></tr><tr><td style="font-weight:bold;vertical-align:top;">menu</td><td style="vertical-align:top;">:</td><td><div><table></table></div></td></tr><tr><td style="font-weight:bold;vertical-align:top;">meta</td><td style="vertical-align:top;">:</td><td><div><table></table></div></td></tr><tr><td style="font-weight:bold;vertical-align:top;">models_to_run</td><td style="vertical-align:top;">:</td><td><div><table><tr><td><div>^\\w+\\.py$</div></td></tr><tr><td><div>^appadmin/\\w+\\.py$</div></td></tr><tr><td><div>^appadmin/select/\\w+\\.py$</div></td></tr></table></div></td></tr><tr><td style="font-weight:bold;vertical-align:top;">postprocessing</td><td style="vertical-align:top;">:</td><td><div><table></table></div></td></tr><tr><td style="font-weight:bold;vertical-align:top;">session_client</td><td style="vertical-align:top;">:</td><td><div>127.0.0.1</div></td></tr><tr><td style="font-weight:bold;vertical-align:top;">session_cookie_compression_level</td><td style="vertical-align:top;">:</td><td><div>None</div></td></tr><tr><td style="font-weight:bold;vertical-align:top;">session_cookie_expires</td><td style="vertical-align:top;">:</td><td><div>None</div></td></tr><tr><td style="font-weight:bold;vertical-align:top;">session_data_name</td><td style="vertical-align:top;">:</td><td><div>session_data_mystore</div></td></tr><tr><td style="font-weight:bold;vertical-align:top;">session_file</td><td style="vertical-align:top;">:</td><td><div>&lt;open file &#x27;/home/leonardodutra/web2py/applications/mystore/sessions/078/18e/127.0.0.1-d7256b0c-87db-4443-84b8-18308c4d57c9&#x27;, mode &#x27;rb+&#x27; at 0xb004b498&gt;</div></td></tr><tr><td style="font-weight:bold;vertical-align:top;">session_filename</td><td style="vertical-align:top;">:</td><td><div>/home/leonardodutra/web2py/applications/mystore/sessions/127.0.0.1-d7256b0c-87db-4443-84b8-18308c4d57c9</div></td></tr><tr><td style="font-weight:bold;vertical-align:top;">session_hash</td><td style="vertical-align:top;">:</td><td><div>a49ef1f23f141883f0ad934d3753469a</div></td></tr><tr><td style="font-weight:bold;vertical-align:top;">session_id</td><td style="vertical-align:top;">:</td><td><div>127.0.0.1-d7256b0c-87db-4443-84b8-18308c4d57c9</div></td></tr><tr><td style="font-weight:bold;vertical-align:top;">session_id_name</td><td style="vertical-align:top;">:</td><td><div>session_id_mystore</div></td></tr><tr><td style="font-weight:bold;vertical-align:top;">session_locked</td><td style="vertical-align:top;">:</td><td><div>True</div></td></tr><tr><td style="font-weight:bold;vertical-align:top;">session_masterapp</td><td style="vertical-align:top;">:</td><td><div>mystore</div></td></tr><tr><td style="font-weight:bold;vertical-align:top;">session_new</td><td style="vertical-align:top;">:</td><td><div>False</div></td></tr><tr><td style="font-weight:bold;vertical-align:top;">session_storage_type</td><td style="vertical-align:top;">:</td><td><div>file</div></td></tr><tr><td style="font-weight:bold;vertical-align:top;">status</td><td style="vertical-align:top;">:</td><td><div>200</div></td></tr><tr><td style="font-weight:bold;vertical-align:top;">view</td><td style="vertical-align:top;">:</td><td><div>appadmin/select.html</div></td></tr></table></div>'
tRp117
sS'locals'
p118
(dp119
S'Service'
p120
S"<class 'gluon.tools.Service'>"
p121
sS'OBJECT'
p122
S"<class 'gluon.html.OBJECT'>"
p123
sS'SQLDB'
p124
S"<class 'pydal.base.DAL'>"
p125
sg110
S"<Storage {'last_query': 'db.product.id>0', '_for...gin]': ['a9a58885-7a12-49ae-acf9-462d50434039']}>"
p126
sS'LINK'
p127
S"<class 'gluon.html.LINK'>"
p128
sS'BR'
p129
S"<class 'gluon.html.BR'>"
p130
sS'local_import'
p131
S'<function <lambda>>'
p132
sS'OPTGROUP'
p133
S"<class 'gluon.html.OPTGROUP'>"
p134
sS'LI'
p135
S"<class 'gluon.html.LI'>"
p136
sS'STRIPE_PUBLISHABLE_KEY'
p137
S"'pk_test_uwzkyPpEAPFJwUNWbnx2p2dJ'"
p138
sS'PRE'
p139
S"<class 'gluon.html.PRE'>"
p140
sS'IS_INT_IN_RANGE'
p141
S"<class 'gluon.validators.IS_INT_IN_RANGE'>"
p142
sS'IS_LOWER'
p143
S"<class 'gluon.validators.IS_LOWER'>"
p144
sS'IS_STRONG'
p145
S"<class 'gluon.validators.IS_STRONG'>"
p146
sS'cache'
p147
S'<gluon.cache.Cache object>'
p148
sS'IS_IN_DB'
p149
S"<class 'gluon.validators.IS_IN_DB'>"
p150
sS'TAG'
p151
S'<gluon.html.__TAG__ object>'
p152
sS'SQLField'
p153
S"<class 'pydal.objects.Field'>"
p154
sS'mail'
p155
S'<gluon.tools.Mail object>'
p156
sS'BODY'
p157
S"<class 'gluon.html.BODY'>"
p158
sS'IS_DATE_IN_RANGE'
p159
S"<class 'gluon.validators.IS_DATE_IN_RANGE'>"
p160
sS'TH'
p161
S"<class 'gluon.html.TH'>"
p162
sS'URL'
p163
S'<function URL>'
p164
sS'__file__'
p165
S"'/home/leonardodutra/web2py/applications/mystore/models/db1.py'"
p166
sS'STRIPE_SECRET_KEY'
p167
S"'sk_test_tlLXqrrfaGOzxvIQtDHp3xJH'"
p168
sS'db'
p169
S'<DAL uri="sqlite://storage.sqlite">'
p170
sS'auth'
p171
S'<gluon.tools.Auth object>'
p172
sS'P'
S"<class 'gluon.html.P'>"
p173
sS'TFOOT'
p174
S"<class 'gluon.html.TFOOT'>"
p175
sS'XHTML'
p176
S"<class 'gluon.html.XHTML'>"
p177
sS'ON'
p178
S'True'
p179
sS'OL'
p180
S"<class 'gluon.html.OL'>"
p181
sS'TEXTAREA'
p182
S"<class 'gluon.html.TEXTAREA'>"
p183
sS'MENU'
p184
S"<class 'gluon.html.MENU'>"
p185
sS'LOAD'
p186
S'<function LOAD>'
p187
sS'CODE'
p188
S"<class 'gluon.html.CODE'>"
p189
sS'HTTP'
p190
S"<class 'gluon.http.HTTP'>"
p191
sS'HR'
p192
S"<class 'gluon.html.HR'>"
p193
sS'IS_DATETIME'
p194
S"<class 'gluon.validators.IS_DATETIME'>"
p195
sS'HEAD'
p196
S"<class 'gluon.html.HEAD'>"
p197
sS'LABEL'
p198
S"<class 'gluon.html.LABEL'>"
p199
sS'CLEANUP'
p200
S"<class 'gluon.validators.CLEANUP'>"
p201
sS'plugins'
p202
S'<gluon.tools.PluginManager object>'
p203
sS'SELECT'
p204
S"<class 'gluon.html.SELECT'>"
p205
sS'CENTER'
p206
S"<class 'gluon.html.CENTER'>"
p207
sS'Auth'
p208
S"<class 'gluon.tools.Auth'>"
p209
sS'__builtins__'
p210
S"{'ArithmeticError': <type 'exceptions.ArithmeticError'>, 'AssertionError': <type 'exceptions.AssertionError'>, 'AttributeError': <type 'exceptions.AttributeError'>, 'BaseException': <type 'exceptions.BaseException'>, 'BufferError': <type 'exceptions.BufferError'>, 'BytesWarning': <type 'exceptions.BytesWarning'>, 'DeprecationWarning': <type 'exceptions.DeprecationWarning'>, 'EOFError': <type 'exceptions.EOFError'>, 'Ellipsis': Ellipsis, 'EnvironmentError': <type 'exceptions.EnvironmentError'>, ...}"
p211
sS'HTML'
p212
S"<class 'gluon.html.HTML'>"
p213
sS'SQLFORM'
p214
S"<class 'gluon.sqlhtml.SQLFORM'>"
p215
sS'EM'
p216
S"<class 'gluon.html.EM'>"
p217
sS'redirect'
p218
S'<function redirect>'
p219
sS'FIELDSET'
p220
S"<class 'gluon.html.FIELDSET'>"
p221
sS'IS_EQUAL_TO'
p222
S"<class 'gluon.validators.IS_EQUAL_TO'>"
p223
sS'embed64'
p224
S'<function embed64>'
p225
sS'IS_LIST_OF'
p226
S"<class 'gluon.validators.IS_LIST_OF'>"
p227
sS'__name__'
p228
S"'__restricted__'"
p229
sS'EMBED'
p230
S"<class 'gluon.html.EMBED'>"
p231
sS'FORM'
p232
S"<class 'gluon.html.FORM'>"
p233
sS'myconf'
p234
S"{'forms': {'formstyle': 'bootstrap3_inline', 'se...'you@gmail.com', 'server': 'smtp.gmail.com:587'}}"
p235
sS'H2'
p236
S"<class 'gluon.html.H2'>"
p237
sS'H3'
p238
S"<class 'gluon.html.H3'>"
p239
sS'AppConfig'
p240
S'<function AppConfig>'
p241
sS'H1'
p242
S"<class 'gluon.html.H1'>"
p243
sS'H6'
p244
S"<class 'gluon.html.H6'>"
p245
sS'H4'
p246
S"<class 'gluon.html.H4'>"
p247
sS'H5'
p248
S"<class 'gluon.html.H5'>"
p249
sS'UL'
p250
S"<class 'gluon.html.UL'>"
p251
sS'IS_UPPER'
p252
S"<class 'gluon.validators.IS_UPPER'>"
p253
sS'xmlescape'
p254
S'<function xmlescape>'
p255
sS'IS_TIME'
p256
S"<class 'gluon.validators.IS_TIME'>"
p257
sS'OPTION'
p258
S"<class 'gluon.html.OPTION'>"
p259
sS'TITLE'
p260
S"<class 'gluon.html.TITLE'>"
p261
sS'CRYPT'
p262
S"<class 'gluon.validators.CRYPT'>"
p263
sS'IS_EMPTY_OR'
p264
S"<class 'gluon.validators.IS_EMPTY_OR'>"
p265
sS'MARKMIN'
p266
S"<class 'gluon.html.MARKMIN'>"
p267
sS'INPUT'
p268
S"<class 'gluon.html.INPUT'>"
p269
sS'STRONG'
p270
S"<class 'gluon.html.STRONG'>"
p271
sS'COL'
p272
S"<class 'gluon.html.COL'>"
p273
sS'service'
p274
S'<gluon.tools.Service object>'
p275
sS'SCRIPT'
p276
S"<class 'gluon.html.SCRIPT'>"
p277
sS'NE'
p278
S'<gluon.validators.IS_NOT_EMPTY object>'
p279
sS'TABLE'
p280
S"<class 'gluon.html.TABLE'>"
p281
sS'IS_IPV4'
p282
S"<class 'gluon.validators.IS_IPV4'>"
p283
sS'IS_LENGTH'
p284
S"<class 'gluon.validators.IS_LENGTH'>"
p285
sS'IS_IPV6'
p286
S"<class 'gluon.validators.IS_IPV6'>"
p287
sS'XML'
p288
S"<class 'gluon.html.XML'>"
p289
sS'B'
S"<class 'gluon.html.B'>"
p290
sS'IMG'
p291
S"<class 'gluon.html.IMG'>"
p292
sS'SQLTABLE'
p293
S"<class 'gluon.sqlhtml.SQLTABLE'>"
p294
sS'IS_MATCH'
p295
S"<class 'gluon.validators.IS_MATCH'>"
p296
sS'IS_ALPHANUMERIC'
p297
S"<class 'gluon.validators.IS_ALPHANUMERIC'>"
p298
sS'SPAN'
p299
S"<class 'gluon.html.SPAN'>"
p300
sS'IS_JSON'
p301
S"<class 'gluon.validators.IS_JSON'>"
p302
sS'IS_IPADDRESS'
p303
S"<class 'gluon.validators.IS_IPADDRESS'>"
p304
sS'IS_SLUG'
p305
S"<class 'gluon.validators.IS_SLUG'>"
p306
sS'BEAUTIFY'
p307
S"<class 'gluon.html.BEAUTIFY'>"
p308
sS'META'
p309
S"<class 'gluon.html.META'>"
p310
sS'BUTTON'
p311
S"<class 'gluon.html.BUTTON'>"
p312
sS'IS_DATE'
p313
S"<class 'gluon.validators.IS_DATE'>"
p314
sS'IS_EMAIL'
p315
S"<class 'gluon.validators.IS_EMAIL'>"
p316
sS'IS_NOT_EMPTY'
p317
S"<class 'gluon.validators.IS_NOT_EMPTY'>"
p318
sg56
S"<Storage {'_vars': None, 'function': 'select', '...ome/leonardodutra/web2py/applications/mystore/'}>"
p319
sS'TBODY'
p320
S"<class 'gluon.html.TBODY'>"
p321
sS'CAT'
p322
S"<class 'gluon.html.CAT'>"
p323
sS'Field'
p324
S"<class 'pydal.objects.Field'>"
p325
sS'IS_LIST_OF_EMAILS'
p326
S"<class 'gluon.validators.IS_LIST_OF_EMAILS'>"
p327
sS'DIV'
p328
S"<class 'gluon.html.DIV'>"
p329
sS'LEGEND'
p330
S"<class 'gluon.html.LEGEND'>"
p331
sS'COLGROUP'
p332
S"<class 'gluon.html.COLGROUP'>"
p333
sS'DAL'
p334
S"<class 'pydal.base.DAL'>"
p335
sS'ASSIGNJS'
p336
S'<function ASSIGNJS>'
p337
sS'TR'
p338
S"<class 'gluon.html.TR'>"
p339
sS'__package__'
p340
S'None'
p341
sS'IFRAME'
p342
S"<class 'gluon.html.IFRAME'>"
p343
sS'TD'
p344
S"<class 'gluon.html.TD'>"
p345
sS'PluginManager'
p346
S"<class 'gluon.tools.PluginManager'>"
p347
sS'IS_URL'
p348
S"<class 'gluon.validators.IS_URL'>"
p349
sS'A'
S"<class 'gluon.html.A'>"
p350
sS'STYLE'
p351
S"<class 'gluon.html.STYLE'>"
p352
sS'IS_DATETIME_IN_RANGE'
p353
S"<class 'gluon.validators.IS_DATETIME_IN_RANGE'>"
p354
sS'IS_IMAGE'
p355
S"<class 'gluon.validators.IS_IMAGE'>"
p356
sS'I'
S"<class 'gluon.html.I'>"
p357
sS'IS_NOT_IN_DB'
p358
S"<class 'gluon.validators.IS_NOT_IN_DB'>"
p359
sg116
S"<Storage {'body': <cStringIO.StringO object at 0... at 0xafe1709c>, 'view': 'appadmin/select.html'}>"
p360
sS'THEAD'
p361
S"<class 'gluon.html.THEAD'>"
p362
sS'ANY_OF'
p363
S"<class 'gluon.validators.ANY_OF'>"
p364
sS'IS_NULL_OR'
p365
S"<class 'gluon.validators.IS_EMPTY_OR'>"
p366
sS'IS_FLOAT_IN_RANGE'
p367
S"<class 'gluon.validators.IS_FLOAT_IN_RANGE'>"
p368
sS'IS_EXPR'
p369
S"<class 'gluon.validators.IS_EXPR'>"
p370
sS'IS_IN_SET'
p371
S"<class 'gluon.validators.IS_IN_SET'>"
p372
sS'IS_UPLOAD_FILENAME'
p373
S"<class 'gluon.validators.IS_UPLOAD_FILENAME'>"
p374
sS'IS_DECIMAL_IN_RANGE'
p375
S"<class 'gluon.validators.IS_DECIMAL_IN_RANGE'>"
p376
sS'TT'
p377
S"<class 'gluon.html.TT'>"
p378
sS'T'
S'<gluon.languages.translator object>'
p379
sssS'traceback'
p380
S'Traceback (most recent call last):\n  File "/home/leonardodutra/web2py/gluon/restricted.py", line 227, in restricted\n    exec ccode in environment\n  File "/home/leonardodutra/web2py/applications/mystore/models/db1.py", line 18, in <module>\n    db.product.trucate()\nAttributeError: \'Table\' object has no attribute \'trucate\'\n'
p381
s.